target datalayout = "e-m:e-p270:32:32-p271:32:32-p272:64:64-i64:64-i128:128-f80:128-n8:16:32:64-S128"
target triple = "x86_64-pc-linux-gnu"

%struct.zmq_poller_event_t = type { ptr, i32, ptr, i16 }

; Function Attrs: mustprogress nounwind uwtable
define void @_ZN3zmq15socket_poller_t17zero_trail_eventsEP18zmq_poller_event_tii(ptr noundef %0, i32 noundef %1, i32 noundef %2) #1 align 2 {
  %4 = alloca ptr, align 8
  %5 = alloca i32, align 4
  %6 = alloca i32, align 4
  %7 = alloca i32, align 4
  store ptr %0, ptr %4, align 8, !tbaa !72
  store i32 %1, ptr %5, align 4, !tbaa !35
  store i32 %2, ptr %6, align 4, !tbaa !35
  call void @llvm.lifetime.start.p0(i64 4, ptr %7) #17
  %8 = load i32, ptr %6, align 4, !tbaa !35
  store i32 %8, ptr %7, align 4, !tbaa !35
  br label %9

9:                                                ; preds = %35, %3
  %10 = load i32, ptr %7, align 4, !tbaa !35
  %11 = load i32, ptr %5, align 4, !tbaa !35
  %12 = icmp slt i32 %10, %11
  br i1 %12, label %14, label %13

13:                                               ; preds = %9
  call void @llvm.lifetime.end.p0(i64 4, ptr %7) #17
  br label %38

14:                                               ; preds = %9
  %15 = load ptr, ptr %4, align 8, !tbaa !72
  %16 = load i32, ptr %7, align 4, !tbaa !35
  %17 = sext i32 %16 to i64
  %18 = getelementptr inbounds %struct.zmq_poller_event_t, ptr %15, i64 %17
  %19 = getelementptr inbounds nuw %struct.zmq_poller_event_t, ptr %18, i32 0, i32 0
  store ptr null, ptr %19, align 8, !tbaa !74
  %20 = load ptr, ptr %4, align 8, !tbaa !72
  %21 = load i32, ptr %7, align 4, !tbaa !35
  %22 = sext i32 %21 to i64
  %23 = getelementptr inbounds %struct.zmq_poller_event_t, ptr %20, i64 %22
  %24 = getelementptr inbounds nuw %struct.zmq_poller_event_t, ptr %23, i32 0, i32 1
  store i32 -1, ptr %24, align 8, !tbaa !76
  %25 = load ptr, ptr %4, align 8, !tbaa !72
  %26 = load i32, ptr %7, align 4, !tbaa !35
  %27 = sext i32 %26 to i64
  %28 = getelementptr inbounds %struct.zmq_poller_event_t, ptr %25, i64 %27
  %29 = getelementptr inbounds nuw %struct.zmq_poller_event_t, ptr %28, i32 0, i32 2
  store ptr null, ptr %29, align 8, !tbaa !77
  %30 = load ptr, ptr %4, align 8, !tbaa !72
  %31 = load i32, ptr %7, align 4, !tbaa !35
  %32 = sext i32 %31 to i64
  %33 = getelementptr inbounds %struct.zmq_poller_event_t, ptr %30, i64 %32
  %34 = getelementptr inbounds nuw %struct.zmq_poller_event_t, ptr %33, i32 0, i32 3
  store i16 0, ptr %34, align 8, !tbaa !78
  br label %35

35:                                               ; preds = %14
  %36 = load i32, ptr %7, align 4, !tbaa !35
  %37 = add nsw i32 %36, 1
  store i32 %37, ptr %7, align 4, !tbaa !35
  br label %9, !llvm.loop !79

38:                                               ; preds = %13
  ret void
}