; Function Attrs: mustprogress nofree norecurse nosync nounwind memory(argmem: write) uwtable
define void @_ZN3zmq15socket_poller_t17zero_trail_eventsEP18zmq_poller_event_tii(ptr noundef writeonly captures(none) %0, i32 noundef %1, i32 noundef %2) local_unnamed_addr #16 align 2 {
  %4 = icmp slt i32 %2, %1
  br i1 %4, label %.lr.ph.preheader, label %._crit_edge

.lr.ph.preheader:                                 ; preds = %3
  %5 = sext i32 %2 to i64
  %wide.trip.count = sext i32 %1 to i64
  br label %.lr.ph

._crit_edge:                                      ; preds = %.lr.ph, %3
  ret void

.lr.ph:                                           ; preds = %.lr.ph.preheader, %.lr.ph
  %indvars.iv = phi i64 [ %5, %.lr.ph.preheader ], [ %indvars.iv.next, %.lr.ph ]
  %6 = getelementptr inbounds %struct.zmq_poller_event_t, ptr %0, i64 %indvars.iv
  store ptr null, ptr %6, align 8, !tbaa !54
  %7 = getelementptr inbounds nuw i8, ptr %6, i64 8
  store i32 -1, ptr %7, align 8, !tbaa !56
  %8 = getelementptr inbounds nuw i8, ptr %6, i64 16
  store ptr null, ptr %8, align 8, !tbaa !57
  %9 = getelementptr inbounds nuw i8, ptr %6, i64 24
  store i16 0, ptr %9, align 8, !tbaa !58
  %indvars.iv.next = add nsw i64 %indvars.iv, 1
  %exitcond.not = icmp eq i64 %indvars.iv.next, %wide.trip.count
  br i1 %exitcond.not, label %._crit_edge, label %.lr.ph, !llvm.loop !59
}